target datalayout = "e-m:e-p270:32:32-p271:32:32-p272:64:64-i64:64-i128:128-f80:128-n8:16:32:64-S128"
target triple = "x86_64-pc-linux-gnu"

%struct._object = type { %union.anon, ptr }
%union.anon = type { i64 }
%struct.elementtreestate = type { ptr, ptr, ptr, ptr, ptr, ptr, ptr, ptr, ptr, ptr, ptr, ptr, ptr, ptr, ptr, ptr, ptr, ptr, ptr }
%struct.anon = type { i32, i32 }
%struct.PyExpat_CAPI = type { ptr, i32, i32, i32, i32, ptr, ptr, ptr, ptr, ptr, ptr, ptr, ptr, ptr, ptr, ptr, ptr, ptr, ptr, ptr, ptr, ptr, ptr, ptr, ptr }
%struct.XMLParserObject = type { %struct._object, ptr, ptr, ptr, ptr, ptr, ptr, ptr, ptr, ptr, ptr, ptr, ptr, ptr, ptr, ptr }

@.str.133 = private unnamed_addr constant [7 x i8] c"strict\00", align 1

; Function Attrs: alwaysinline nounwind uwtable
define internal i32 @_Py_IsImmortal(ptr noundef %0) #4 {
  %2 = alloca ptr, align 8
  store ptr %0, ptr %2, align 8, !tbaa !3
  %3 = load ptr, ptr %2, align 8, !tbaa !3
  %4 = getelementptr inbounds nuw %struct._object, ptr %3, i32 0, i32 0
  %5 = getelementptr inbounds nuw %struct.anon, ptr %4, i32 0, i32 0
  %6 = load i32, ptr %5, align 8, !tbaa !32
  %7 = icmp slt i32 %6, 0
  %8 = zext i1 %7 to i32
  ret i32 %8
}

; Function Attrs: inlinehint nounwind uwtable
define internal ptr @_Py_TYPE(ptr noundef %0) #3 {
  %2 = alloca ptr, align 8
  store ptr %0, ptr %2, align 8, !tbaa !3
  %3 = load ptr, ptr %2, align 8, !tbaa !3
  %4 = getelementptr inbounds nuw %struct._object, ptr %3, i32 0, i32 1
  %5 = load ptr, ptr %4, align 8, !tbaa !52
  ret ptr %5
}

; Function Attrs: alwaysinline nounwind uwtable
define internal void @Py_DECREF(ptr noundef %0) #4 {
  %2 = alloca ptr, align 8
  store ptr %0, ptr %2, align 8, !tbaa !3
  %3 = load ptr, ptr %2, align 8, !tbaa !3
  %4 = call i32 @_Py_IsImmortal(ptr noundef %3)
  %5 = icmp ne i32 %4, 0
  br i1 %5, label %6, label %7

6:                                                ; preds = %1
  br label %16

7:                                                ; preds = %1
  %8 = load ptr, ptr %2, align 8, !tbaa !3
  %9 = getelementptr inbounds nuw %struct._object, ptr %8, i32 0, i32 0
  %10 = getelementptr inbounds nuw %struct.anon, ptr %9, i32 0, i32 0
  %11 = load i32, ptr %10, align 8, !tbaa !32
  %12 = add i32 %11, -1
  store i32 %12, ptr %10, align 8, !tbaa !32
  %13 = icmp eq i32 %12, 0
  br i1 %13, label %14, label %16

14:                                               ; preds = %7
  %15 = load ptr, ptr %2, align 8, !tbaa !3
  call void @_Py_Dealloc(ptr noundef %15)
  br label %16

16:                                               ; preds = %6, %14, %7
  ret void
}

; Function Attrs: inlinehint nounwind uwtable
define internal void @Py_XDECREF(ptr noundef %0) #3 {
  %2 = alloca ptr, align 8
  store ptr %0, ptr %2, align 8, !tbaa !3
  %3 = load ptr, ptr %2, align 8, !tbaa !3
  %4 = icmp ne ptr %3, null
  br i1 %4, label %5, label %7

5:                                                ; preds = %1
  %6 = load ptr, ptr %2, align 8, !tbaa !3
  call void @Py_DECREF(ptr noundef %6)
  br label %7

7:                                                ; preds = %5, %1
  ret void
}

; Function Attrs: inlinehint nounwind uwtable
define internal i32 @Py_IS_TYPE(ptr noundef %0, ptr noundef %1) #3 {
  %3 = alloca ptr, align 8
  %4 = alloca ptr, align 8
  store ptr %0, ptr %3, align 8, !tbaa !3
  store ptr %1, ptr %4, align 8, !tbaa !28
  %5 = load ptr, ptr %3, align 8, !tbaa !3
  %6 = call ptr @_Py_TYPE(ptr noundef %5)
  %7 = load ptr, ptr %4, align 8, !tbaa !28
  %8 = icmp eq ptr %6, %7
  %9 = zext i1 %8 to i32
  ret i32 %9
}

; Function Attrs: nounwind uwtable
define internal void @expat_default_handler(ptr noundef %0, ptr noundef %1, i32 noundef %2) #0 {
  %4 = alloca ptr, align 8
  %5 = alloca ptr, align 8
  %6 = alloca i32, align 4
  %7 = alloca ptr, align 8
  %8 = alloca ptr, align 8
  %9 = alloca ptr, align 8
  %10 = alloca i32, align 4
  %11 = alloca ptr, align 8
  %12 = alloca [128 x i8], align 16
  store ptr %0, ptr %4, align 8, !tbaa !8
  store ptr %1, ptr %5, align 8, !tbaa !139
  store i32 %2, ptr %6, align 4, !tbaa !13
  call void @llvm.lifetime.start.p0(i64 8, ptr %7) #8
  call void @llvm.lifetime.start.p0(i64 8, ptr %8) #8
  call void @llvm.lifetime.start.p0(i64 8, ptr %9) #8
  %13 = load i32, ptr %6, align 4, !tbaa !13
  %14 = icmp slt i32 %13, 2
  br i1 %14, label %21, label %15

15:                                               ; preds = %3
  %16 = load ptr, ptr %5, align 8, !tbaa !139
  %17 = getelementptr i8, ptr %16, i64 0
  %18 = load i8, ptr %17, align 1, !tbaa !32
  %19 = sext i8 %18 to i32
  %20 = icmp ne i32 %19, 38
  br i1 %20, label %21, label %22

21:                                               ; preds = %15, %3
  store i32 1, ptr %10, align 4
  br label %115

22:                                               ; preds = %15
  %23 = call ptr @PyErr_Occurred()
  %24 = icmp ne ptr %23, null
  br i1 %24, label %25, label %26

25:                                               ; preds = %22
  store i32 1, ptr %10, align 4
  br label %115

26:                                               ; preds = %22
  %27 = load ptr, ptr %5, align 8, !tbaa !139
  %28 = getelementptr i8, ptr %27, i64 1
  %29 = load i32, ptr %6, align 4, !tbaa !13
  %30 = sub i32 %29, 2
  %31 = sext i32 %30 to i64
  %32 = call ptr @PyUnicode_DecodeUTF8(ptr noundef %28, i64 noundef %31, ptr noundef @.str.133)
  store ptr %32, ptr %7, align 8, !tbaa !3
  %33 = load ptr, ptr %7, align 8, !tbaa !3
  %34 = icmp ne ptr %33, null
  br i1 %34, label %36, label %35

35:                                               ; preds = %26
  store i32 1, ptr %10, align 4
  br label %115

36:                                               ; preds = %26
  %37 = load ptr, ptr %4, align 8, !tbaa !8
  %38 = getelementptr inbounds nuw %struct.XMLParserObject, ptr %37, i32 0, i32 3
  %39 = load ptr, ptr %38, align 8, !tbaa !169
  %40 = load ptr, ptr %7, align 8, !tbaa !3
  %41 = call ptr @PyDict_GetItemWithError(ptr noundef %39, ptr noundef %40)
  store ptr %41, ptr %8, align 8, !tbaa !3
  call void @llvm.lifetime.start.p0(i64 8, ptr %11) #8
  %42 = load ptr, ptr %4, align 8, !tbaa !8
  %43 = getelementptr inbounds nuw %struct.XMLParserObject, ptr %42, i32 0, i32 14
  %44 = load ptr, ptr %43, align 8, !tbaa !171
  store ptr %44, ptr %11, align 8, !tbaa !8
  %45 = load ptr, ptr %8, align 8, !tbaa !3
  %46 = icmp ne ptr %45, null
  br i1 %46, label %47, label %77

47:                                               ; preds = %36
  %48 = load ptr, ptr %4, align 8, !tbaa !8
  %49 = getelementptr inbounds nuw %struct.XMLParserObject, ptr %48, i32 0, i32 2
  %50 = load ptr, ptr %49, align 8, !tbaa !168
  %51 = load ptr, ptr %11, align 8, !tbaa !8
  %52 = getelementptr inbounds nuw %struct.elementtreestate, ptr %51, i32 0, i32 15
  %53 = load ptr, ptr %52, align 8, !tbaa !21
  %54 = call i32 @Py_IS_TYPE(ptr noundef %50, ptr noundef %53)
  %55 = icmp ne i32 %54, 0
  br i1 %55, label %56, label %62

56:                                               ; preds = %47
  %57 = load ptr, ptr %4, align 8, !tbaa !8
  %58 = getelementptr inbounds nuw %struct.XMLParserObject, ptr %57, i32 0, i32 2
  %59 = load ptr, ptr %58, align 8, !tbaa !168
  %60 = load ptr, ptr %8, align 8, !tbaa !3
  %61 = call ptr @treebuilder_handle_data(ptr noundef %59, ptr noundef %60)
  store ptr %61, ptr %9, align 8, !tbaa !3
  br label %75

62:                                               ; preds = %47
  %63 = load ptr, ptr %4, align 8, !tbaa !8
  %64 = getelementptr inbounds nuw %struct.XMLParserObject, ptr %63, i32 0, i32 8
  %65 = load ptr, ptr %64, align 8, !tbaa !163
  %66 = icmp ne ptr %65, null
  br i1 %66, label %67, label %73

67:                                               ; preds = %62
  %68 = load ptr, ptr %4, align 8, !tbaa !8
  %69 = getelementptr inbounds nuw %struct.XMLParserObject, ptr %68, i32 0, i32 8
  %70 = load ptr, ptr %69, align 8, !tbaa !163
  %71 = load ptr, ptr %8, align 8, !tbaa !3
  %72 = call ptr @PyObject_CallOneArg(ptr noundef %70, ptr noundef %71)
  store ptr %72, ptr %9, align 8, !tbaa !3
  br label %74

73:                                               ; preds = %62
  store ptr null, ptr %9, align 8, !tbaa !3
  br label %74

74:                                               ; preds = %73, %67
  br label %75

75:                                               ; preds = %74, %56
  %76 = load ptr, ptr %9, align 8, !tbaa !3
  call void @Py_XDECREF(ptr noundef %76)
  br label %113

77:                                               ; preds = %36
  %78 = call ptr @PyErr_Occurred()
  %79 = icmp ne ptr %78, null
  br i1 %79, label %112, label %80

80:                                               ; preds = %77
  call void @llvm.lifetime.start.p0(i64 128, ptr %12) #8
  call void @llvm.memcpy.p0.p0.i64(ptr align 16 %12, ptr align 16 @__const.expat_default_handler.message, i64 128, i1 false)
  %81 = getelementptr inbounds [128 x i8], ptr %12, i64 0, i64 0
  %82 = load ptr, ptr %5, align 8, !tbaa !139
  %83 = load i32, ptr %6, align 4, !tbaa !13
  %84 = icmp slt i32 %83, 100
  br i1 %84, label %85, label %87

85:                                               ; preds = %80
  %86 = load i32, ptr %6, align 4, !tbaa !13
  br label %88

87:                                               ; preds = %80
  br label %88

88:                                               ; preds = %87, %85
  %89 = phi i32 [ %86, %85 ], [ 100, %87 ]
  %90 = sext i32 %89 to i64
  %91 = call ptr @strncat(ptr noundef %81, ptr noundef %82, i64 noundef %90) #8
  %92 = load ptr, ptr %11, align 8, !tbaa !8
  %93 = load ptr, ptr %11, align 8, !tbaa !8
  %94 = getelementptr inbounds nuw %struct.elementtreestate, ptr %93, i32 0, i32 18
  %95 = load ptr, ptr %94, align 8, !tbaa !29
  %96 = getelementptr inbounds nuw %struct.PyExpat_CAPI, ptr %95, i32 0, i32 8
  %97 = load ptr, ptr %96, align 8, !tbaa !183
  %98 = load ptr, ptr %4, align 8, !tbaa !8
  %99 = getelementptr inbounds nuw %struct.XMLParserObject, ptr %98, i32 0, i32 1
  %100 = load ptr, ptr %99, align 8, !tbaa !172
  %101 = call i64 %97(ptr noundef %100)
  %102 = load ptr, ptr %11, align 8, !tbaa !8
  %103 = getelementptr inbounds nuw %struct.elementtreestate, ptr %102, i32 0, i32 18
  %104 = load ptr, ptr %103, align 8, !tbaa !29
  %105 = getelementptr inbounds nuw %struct.PyExpat_CAPI, ptr %104, i32 0, i32 7
  %106 = load ptr, ptr %105, align 8, !tbaa !184
  %107 = load ptr, ptr %4, align 8, !tbaa !8
  %108 = getelementptr inbounds nuw %struct.XMLParserObject, ptr %107, i32 0, i32 1
  %109 = load ptr, ptr %108, align 8, !tbaa !172
  %110 = call i64 %106(ptr noundef %109)
  %111 = getelementptr inbounds [128 x i8], ptr %12, i64 0, i64 0
  call void @expat_set_error(ptr noundef %92, i32 noundef 11, i64 noundef %101, i64 noundef %110, ptr noundef %111)
  call void @llvm.lifetime.end.p0(i64 128, ptr %12) #8
  br label %112

112:                                              ; preds = %88, %77
  br label %113

113:                                              ; preds = %112, %75
  %114 = load ptr, ptr %7, align 8, !tbaa !3
  call void @Py_DECREF(ptr noundef %114)
  call void @llvm.lifetime.end.p0(i64 8, ptr %11) #8
  store i32 0, ptr %10, align 4
  br label %115

115:                                              ; preds = %113, %35, %25, %21
  call void @llvm.lifetime.end.p0(i64 8, ptr %9) #8
  call void @llvm.lifetime.end.p0(i64 8, ptr %8) #8
  call void @llvm.lifetime.end.p0(i64 8, ptr %7) #8
  %116 = load i32, ptr %10, align 4
  switch i32 %116, label %118 [
    i32 0, label %117
    i32 1, label %117
  ]

117:                                              ; preds = %115, %115
  ret void

118:                                              ; preds = %115
  unreachable
}