; Function Attrs: nounwind uwtable
define internal void @expat_default_handler(ptr noundef readonly captures(none) %0, ptr noundef %1, i32 noundef %2) #0 {
  %4 = alloca [128 x i8], align 16
  %5 = icmp slt i32 %2, 2
  br i1 %5, label %Py_DECREF.exit, label %6

6:                                                ; preds = %3
  %7 = load i8, ptr %1, align 1, !tbaa !21
  %.not = icmp eq i8 %7, 38
  br i1 %.not, label %8, label %Py_DECREF.exit

8:                                                ; preds = %6
  %9 = tail call ptr @PyErr_Occurred() #12
  %.not29 = icmp eq ptr %9, null
  br i1 %.not29, label %10, label %Py_DECREF.exit

10:                                               ; preds = %8
  %11 = getelementptr i8, ptr %1, i64 1
  %12 = add nsw i32 %2, -2
  %13 = zext nneg i32 %12 to i64
  %14 = tail call ptr @PyUnicode_DecodeUTF8(ptr noundef %11, i64 noundef %13, ptr noundef nonnull @.str.133) #12
  %.not30 = icmp eq ptr %14, null
  br i1 %.not30, label %Py_DECREF.exit, label %15

15:                                               ; preds = %10
  %16 = getelementptr inbounds nuw i8, ptr %0, i64 32
  %17 = load ptr, ptr %16, align 8, !tbaa !163
  %18 = tail call ptr @PyDict_GetItemWithError(ptr noundef %17, ptr noundef nonnull %14) #12
  %19 = getelementptr inbounds nuw i8, ptr %0, i64 120
  %20 = load ptr, ptr %19, align 8, !tbaa !166
  %.not31 = icmp eq ptr %18, null
  br i1 %.not31, label %41, label %21

21:                                               ; preds = %15
  %22 = getelementptr inbounds nuw i8, ptr %0, i64 24
  %23 = load ptr, ptr %22, align 8, !tbaa !162
  %24 = getelementptr inbounds nuw i8, ptr %20, i64 120
  %25 = load ptr, ptr %24, align 8, !tbaa !17
  %26 = getelementptr i8, ptr %23, i64 8
  %.val = load ptr, ptr %26, align 8, !tbaa !25
  %.not38 = icmp eq ptr %.val, %25
  br i1 %.not38, label %27, label %29

27:                                               ; preds = %21
  %28 = tail call fastcc ptr @treebuilder_handle_data(ptr noundef nonnull %23, ptr noundef nonnull %18)
  br label %34

29:                                               ; preds = %21
  %30 = getelementptr inbounds nuw i8, ptr %0, i64 72
  %31 = load ptr, ptr %30, align 8, !tbaa !157
  %.not34 = icmp eq ptr %31, null
  br i1 %.not34, label %Py_XDECREF.exit, label %32

32:                                               ; preds = %29
  %33 = tail call ptr @PyObject_CallOneArg(ptr noundef nonnull %31, ptr noundef nonnull %18) #12
  br label %34

34:                                               ; preds = %32, %27
  %.0 = phi ptr [ %28, %27 ], [ %33, %32 ]
  %.not.i35 = icmp eq ptr %.0, null
  br i1 %.not.i35, label %Py_XDECREF.exit, label %35

35:                                               ; preds = %34
  %36 = load i32, ptr %.0, align 8, !tbaa !21
  %.not.i.i = icmp sgt i32 %36, -1
  br i1 %.not.i.i, label %37, label %Py_XDECREF.exit

37:                                               ; preds = %35
  %38 = add nsw i32 %36, -1
  store i32 %38, ptr %.0, align 8, !tbaa !21
  %39 = icmp eq i32 %38, 0
  br i1 %39, label %40, label %Py_XDECREF.exit

40:                                               ; preds = %37
  tail call void @_Py_Dealloc(ptr noundef nonnull %.0) #12
  br label %Py_XDECREF.exit

41:                                               ; preds = %15
  %42 = tail call ptr @PyErr_Occurred() #12
  %.not32 = icmp eq ptr %42, null
  br i1 %.not32, label %43, label %Py_XDECREF.exit

43:                                               ; preds = %41
  call void @llvm.lifetime.start.p0(i64 128, ptr nonnull %4) #12
  call void @llvm.memcpy.p0.p0.i64(ptr noundef nonnull align 16 dereferenceable(128) %4, ptr noundef nonnull align 16 dereferenceable(128) @__const.expat_default_handler.message, i64 128, i1 false)
  %44 = tail call i32 @llvm.umin.i32(i32 %2, i32 100)
  %45 = zext nneg i32 %44 to i64
  %46 = call ptr @strncat(ptr noundef nonnull dereferenceable(1) %4, ptr noundef nonnull %1, i64 noundef %45) #12
  %47 = getelementptr inbounds nuw i8, ptr %20, i64 144
  %48 = load ptr, ptr %47, align 8, !tbaa !23
  %49 = getelementptr inbounds nuw i8, ptr %48, i64 48
  %50 = load ptr, ptr %49, align 8, !tbaa !184
  %51 = getelementptr inbounds nuw i8, ptr %0, i64 16
  %52 = load ptr, ptr %51, align 8, !tbaa !165
  %53 = call i64 %50(ptr noundef %52) #12
  %54 = load ptr, ptr %47, align 8, !tbaa !23
  %55 = getelementptr inbounds nuw i8, ptr %54, i64 40
  %56 = load ptr, ptr %55, align 8, !tbaa !185
  %57 = load ptr, ptr %51, align 8, !tbaa !165
  %58 = call i64 %56(ptr noundef %57) #12
  call fastcc void @expat_set_error(ptr noundef %20, i32 noundef 11, i64 noundef %53, i64 noundef %58, ptr noundef nonnull %4)
  call void @llvm.lifetime.end.p0(i64 128, ptr nonnull %4) #12
  br label %Py_XDECREF.exit

Py_XDECREF.exit:                                  ; preds = %29, %40, %37, %35, %34, %41, %43
  %59 = load i32, ptr %14, align 8, !tbaa !21
  %.not.i = icmp sgt i32 %59, -1
  br i1 %.not.i, label %60, label %Py_DECREF.exit

60:                                               ; preds = %Py_XDECREF.exit
  %61 = add nsw i32 %59, -1
  store i32 %61, ptr %14, align 8, !tbaa !21
  %62 = icmp eq i32 %61, 0
  br i1 %62, label %63, label %Py_DECREF.exit

63:                                               ; preds = %60
  call void @_Py_Dealloc(ptr noundef nonnull %14) #12
  br label %Py_DECREF.exit

Py_DECREF.exit:                                   ; preds = %63, %60, %Py_XDECREF.exit, %10, %8, %3, %6
  ret void
}